target datalayout = "e-m:e-p270:32:32-p271:32:32-p272:64:64-i64:64-i128:128-f80:128-n8:16:32:64-S128"
target triple = "x86_64-pc-linux-gnu"

%struct._object = type { %union.anon, ptr }
%union.anon = type { i64 }
%struct.XxoObject = type { %struct._object, ptr, [10 x i8], i64 }

@PyExc_KeyError = external global ptr, align 8
@PyExc_AttributeError = external global ptr, align 8
@.str.11 = private unnamed_addr constant [34 x i8] c"delete non-existing Xxo attribute\00", align 1

; Function Attrs: nounwind uwtable
define internal i32 @Xxo_setattro(ptr noundef %0, ptr noundef %1, ptr noundef %2) #0 {
  %4 = alloca i32, align 4
  %5 = alloca ptr, align 8
  %6 = alloca ptr, align 8
  %7 = alloca ptr, align 8
  %8 = alloca i32, align 4
  %9 = alloca i32, align 4
  store ptr %0, ptr %5, align 8, !tbaa !8
  store ptr %1, ptr %6, align 8, !tbaa !3
  store ptr %2, ptr %7, align 8, !tbaa !3
  %10 = load ptr, ptr %5, align 8, !tbaa !8
  %11 = getelementptr inbounds nuw %struct.XxoObject, ptr %10, i32 0, i32 1
  %12 = load ptr, ptr %11, align 8, !tbaa !18
  %13 = icmp eq ptr %12, null
  br i1 %13, label %14, label %24

14:                                               ; preds = %3
  %15 = call ptr @PyDict_New()
  %16 = load ptr, ptr %5, align 8, !tbaa !8
  %17 = getelementptr inbounds nuw %struct.XxoObject, ptr %16, i32 0, i32 1
  store ptr %15, ptr %17, align 8, !tbaa !18
  %18 = load ptr, ptr %5, align 8, !tbaa !8
  %19 = getelementptr inbounds nuw %struct.XxoObject, ptr %18, i32 0, i32 1
  %20 = load ptr, ptr %19, align 8, !tbaa !18
  %21 = icmp eq ptr %20, null
  br i1 %21, label %22, label %23

22:                                               ; preds = %14
  store i32 -1, ptr %4, align 4
  br label %51

23:                                               ; preds = %14
  br label %24

24:                                               ; preds = %23, %3
  %25 = load ptr, ptr %7, align 8, !tbaa !3
  %26 = icmp eq ptr %25, null
  br i1 %26, label %27, label %44

27:                                               ; preds = %24
  call void @llvm.lifetime.start.p0(i64 4, ptr %8) #6
  %28 = load ptr, ptr %5, align 8, !tbaa !8
  %29 = getelementptr inbounds nuw %struct.XxoObject, ptr %28, i32 0, i32 1
  %30 = load ptr, ptr %29, align 8, !tbaa !18
  %31 = load ptr, ptr %6, align 8, !tbaa !3
  %32 = call i32 @PyDict_DelItem(ptr noundef %30, ptr noundef %31)
  store i32 %32, ptr %8, align 4, !tbaa !11
  %33 = load i32, ptr %8, align 4, !tbaa !11
  %34 = icmp slt i32 %33, 0
  br i1 %34, label %35, label %41

35:                                               ; preds = %27
  %36 = load ptr, ptr @PyExc_KeyError, align 8, !tbaa !3
  %37 = call i32 @PyErr_ExceptionMatches(ptr noundef %36)
  %38 = icmp ne i32 %37, 0
  br i1 %38, label %39, label %41

39:                                               ; preds = %35
  %40 = load ptr, ptr @PyExc_AttributeError, align 8, !tbaa !3
  call void @PyErr_SetString(ptr noundef %40, ptr noundef @.str.11)
  store i32 -1, ptr %4, align 4
  store i32 1, ptr %9, align 4
  br label %43

41:                                               ; preds = %35, %27
  %42 = load i32, ptr %8, align 4, !tbaa !11
  store i32 %42, ptr %4, align 4
  store i32 1, ptr %9, align 4
  br label %43

43:                                               ; preds = %41, %39
  call void @llvm.lifetime.end.p0(i64 4, ptr %8) #6
  br label %51

44:                                               ; preds = %24
  %45 = load ptr, ptr %5, align 8, !tbaa !8
  %46 = getelementptr inbounds nuw %struct.XxoObject, ptr %45, i32 0, i32 1
  %47 = load ptr, ptr %46, align 8, !tbaa !18
  %48 = load ptr, ptr %6, align 8, !tbaa !3
  %49 = load ptr, ptr %7, align 8, !tbaa !3
  %50 = call i32 @PyDict_SetItem(ptr noundef %47, ptr noundef %48, ptr noundef %49)
  store i32 %50, ptr %4, align 4
  br label %51

51:                                               ; preds = %44, %43, %22
  %52 = load i32, ptr %4, align 4
  ret i32 %52
}