; Function Attrs: nounwind uwtable
define internal i32 @Xxo_setattro(ptr noundef captures(none) %0, ptr noundef %1, ptr noundef %2) #0 {
  %4 = getelementptr inbounds nuw i8, ptr %0, i64 16
  %5 = load ptr, ptr %4, align 8, !tbaa !18
  %6 = icmp eq ptr %5, null
  br i1 %6, label %7, label %10

7:                                                ; preds = %3
  %8 = tail call ptr @PyDict_New() #5
  store ptr %8, ptr %4, align 8, !tbaa !18
  %9 = icmp eq ptr %8, null
  br i1 %9, label %23, label %10

10:                                               ; preds = %7, %3
  %11 = phi ptr [ %8, %7 ], [ %5, %3 ]
  %12 = icmp eq ptr %2, null
  br i1 %12, label %13, label %21

13:                                               ; preds = %10
  %14 = tail call i32 @PyDict_DelItem(ptr noundef nonnull %11, ptr noundef %1) #5
  %15 = icmp slt i32 %14, 0
  br i1 %15, label %16, label %23

16:                                               ; preds = %13
  %17 = load ptr, ptr @PyExc_KeyError, align 8, !tbaa !10
  %18 = tail call i32 @PyErr_ExceptionMatches(ptr noundef %17) #5
  %.not = icmp eq i32 %18, 0
  br i1 %.not, label %23, label %19

19:                                               ; preds = %16
  %20 = load ptr, ptr @PyExc_AttributeError, align 8, !tbaa !10
  tail call void @PyErr_SetString(ptr noundef %20, ptr noundef nonnull @.str.11) #5
  br label %23

21:                                               ; preds = %10
  %22 = tail call i32 @PyDict_SetItem(ptr noundef nonnull %11, ptr noundef %1, ptr noundef nonnull %2) #5
  br label %23

23:                                               ; preds = %19, %16, %13, %7, %21
  %.0 = phi i32 [ %22, %21 ], [ -1, %7 ], [ -1, %19 ], [ %14, %16 ], [ %14, %13 ]
  ret i32 %.0
}